Certificate:
    Data:
        Version: 3 (0x2)
        Serial Number: 1700020912 (0x655442b0)
    Signature Algorithm: sha256WithRSAEncryption
        Issuer: C=ww, ST=World, L=Milan, O=redhat, OU=JBoss, CN=Vittorio Riga
        Validity
            Not Before: Jan 31 08:06:32 2018 GMT
            Not After : Dec 10 08:06:32 2027 GMT
        Subject: C=ww, ST=World, L=Milan, O=redhat, OU=JBoss, CN=Vittorio Riga
        Subject Public Key Info:
            Public Key Algorithm: rsaEncryption
                Public-Key: (2048 bit)
                Modulus:
                    00:b9:d1:55:68:83:5f:29:04:a9:17:f6:d0:60:0c:
                    11:d1:25:81:b4:57:b5:6b:a9:f6:61:03:31:32:c2:
                    73:96:56:91:01:78:0b:7e:f9:44:3f:8e:be:a1:66:
                    4c:22:3f:03:d7:eb:f2:eb:ed:cb:26:ed:30:ce:09:
                    5c:9c:29:48:70:ec:3f:35:66:71:85:78:68:bc:d6:
                    52:21:ed:a1:6b:17:e9:5e:d5:38:d9:cb:23:10:42:
                    0c:18:dd:3d:50:60:11:4b:ea:9c:47:ee:85:61:cc:
                    5a:a9:3a:ff:30:fa:2d:a8:49:01:19:e8:d9:9c:d4:
                    03:bc:33:15:f5:c0:9a:42:03:80:05:cb:72:61:96:
                    23:90:a5:5c:04:32:be:42:c8:62:c2:a4:46:d5:c7:
                    4b:88:1c:f9:95:2c:e7:15:c1:82:85:42:13:f2:d3:
                    c9:6f:a7:c1:91:af:31:8b:24:e2:de:66:88:c0:e4:
                    9a:f3:2e:e8:5b:ec:d4:bf:87:80:47:30:5f:60:8f:
                    c9:c3:0e:d9:a1:c7:3f:9d:e5:c4:0b:55:64:db:01:
                    26:23:2a:c9:e2:a6:e6:52:fe:e1:01:bf:c1:e3:1b:
                    66:15:b5:17:d7:d1:c5:28:bb:5b:a1:4c:5e:e1:9a:
                    57:4d:2d:35:38:83:4c:d3:55:2f:57:cc:02:20:80:
                    a9:d9
                Exponent: 65537 (0x10001)
        X509v3 extensions:
            X509v3 Subject Key Identifier: 
                C0:E8:B1:82:A2:35:2C:C5:BE:D1:28:D8:9F:B9:B0:6E:4D:B2:85:F3
    Signature Algorithm: sha256WithRSAEncryption
         66:71:9d:7f:73:81:ae:91:b6:d3:d3:d7:b7:ca:12:c9:f7:18:
         27:07:7d:07:68:34:f4:d0:be:d8:23:a4:a3:60:0d:f8:0f:39:
         ed:7c:5e:9b:b2:2b:ed:f7:d4:b2:dc:b4:33:a4:70:21:0e:f2:
         05:8f:b3:fe:45:bc:ce:a9:f7:36:26:64:15:df:04:ff:a7:e6:
         70:55:98:51:ba:ca:01:80:82:68:08:f2:9f:07:59:41:29:58:
         50:82:49:63:5c:6a:fe:30:28:cf:0b:a6:b7:86:d5:1a:9c:b2:
         34:d2:e1:d1:0d:47:d7:d4:6f:83:cd:8c:39:46:e7:0b:a8:31:
         fb:3a:2e:34:01:5e:1b:74:42:5d:73:1e:72:a0:85:d6:29:12:
         02:ba:26:f1:7f:c0:9b:2f:5f:18:29:8a:6e:8b:5d:23:7c:79:
         76:1a:83:08:70:f0:81:35:9a:ca:4e:b9:65:d8:7e:2d:c5:c6:
         81:b9:e4:6f:2e:26:40:63:9e:9d:8f:8c:d5:3e:f1:3d:46:25:
         8b:8e:26:a1:e4:83:83:a6:e7:7e:3f:8e:0b:c8:de:00:3b:a0:
         7d:a4:61:ff:ea:b3:5b:bc:70:20:44:b2:c6:32:8e:8e:50:28:
         99:9f:56:54:97:d3:1b:a2:c4:0e:71:f7:da:fb:66:9c:a7:69:
         4f:f7:47:f4
-----BEGIN CERTIFICATE-----
MIIDazCCAlOgAwIBAgIEZVRCsDANBgkqhkiG9w0BAQsFADBmMQswCQYDVQQGEwJ3
dzEOMAwGA1UECBMFV29ybGQxDjAMBgNVBAcTBU1pbGFuMQ8wDQYDVQQKEwZyZWRo
YXQxDjAMBgNVBAsTBUpCb3NzMRYwFAYDVQQDEw1WaXR0b3JpbyBSaWdhMB4XDTE4
MDEzMTA4MDYzMloXDTI3MTIxMDA4MDYzMlowZjELMAkGA1UEBhMCd3cxDjAMBgNV
BAgTBVdvcmxkMQ4wDAYDVQQHEwVNaWxhbjEPMA0GA1UEChMGcmVkaGF0MQ4wDAYD
VQQLEwVKQm9zczEWMBQGA1UEAxMNVml0dG9yaW8gUmlnYTCCASIwDQYJKoZIhvcN
AQEBBQADggEPADCCAQoCggEBALnRVWiDXykEqRf20GAMEdElgbRXtWup9mEDMTLC
c5ZWkQF4C375RD+OvqFmTCI/A9fr8uvtyybtMM4JXJwpSHDsPzVmcYV4aLzWUiHt
oWsX6V7VONnLIxBCDBjdPVBgEUvqnEfuhWHMWqk6/zD6LahJARno2ZzUA7wzFfXA
mkIDgAXLcmGWI5ClXAQyvkLIYsKkRtXHS4gc+ZUs5xXBgoVCE/LTyW+nwZGvMYsk
4t5miMDkmvMu6Fvs1L+HgEcwX2CPycMO2aHHP53lxAtVZNsBJiMqyeKm5lL+4QG/
weMbZhW1F9fRxSi7W6FMXuGaV00tNTiDTNNVL1fMAiCAqdkCAwEAAaMhMB8wHQYD
VR0OBBYEFMDosYKiNSzFvtEo2J+5sG5NsoXzMA0GCSqGSIb3DQEBCwUAA4IBAQBm
cZ1/c4GukbbT09e3yhLJ9xgnB30HaDT00L7YI6SjYA34DzntfF6bsivt99Sy3LQz
pHAhDvIFj7P+RbzOqfc2JmQV3wT/p+ZwVZhRusoBgIJoCPKfB1lBKVhQgkljXGr+
MCjPC6a3htUanLI00uHRDUfX1G+DzYw5RucLqDH7Oi40AV4bdEJdcx5yoIXWKRIC
uibxf8CbL18YKYpui10jfHl2GoMIcPCBNZrKTrll2H4txcaBueRvLiZAY56dj4zV
PvE9RiWLjiah5IODpud+P44LyN4AO6B9pGH/6rNbvHAgRLLGMo6OUCiZn1ZUl9Mb
osQOcffa+2acp2lP90f0
-----END CERTIFICATE-----
