Certificate:
    Data:
        Version: 3 (0x2)
        Serial Number: 2091618734 (0x7cab91ae)
    Signature Algorithm: sha256WithRSAEncryption
        Issuer: C=ww, ST=world, L=Milan, O=redhat, OU=JBoss, CN=Vittorio Riga
        Validity
            Not Before: Jan 31 07:39:31 2018 GMT
            Not After : Dec 10 07:39:31 2027 GMT
        Subject: C=ww, ST=world, L=Milan, O=redhat, OU=JBoss, CN=Vittorio Riga
        Subject Public Key Info:
            Public Key Algorithm: rsaEncryption
                Public-Key: (2048 bit)
                Modulus:
                    00:9c:3f:1c:2b:aa:ed:ca:d0:1d:6b:34:d5:39:39:
                    9b:4b:63:1a:3b:89:5b:9f:32:db:05:0e:1e:ee:44:
                    c7:00:98:15:a0:7d:fc:eb:31:04:f3:2c:04:0c:3e:
                    96:e5:ee:03:e5:d9:28:16:e3:30:41:eb:c0:fa:36:
                    dc:2d:55:bb:42:66:f6:bd:94:13:40:9c:82:58:4b:
                    d2:fd:9d:af:e4:80:83:0c:87:39:0c:44:49:9c:5e:
                    fd:1f:ae:58:66:f9:ac:67:2b:aa:1c:9d:c1:4c:a7:
                    f4:93:73:ac:ac:57:4b:42:b0:56:45:a7:5a:0c:8d:
                    34:39:f2:26:15:b0:6b:94:2b:c1:c1:b5:e0:9e:42:
                    c7:41:74:e6:1e:b8:6f:1f:e0:9b:0f:0c:76:de:04:
                    27:89:bb:37:4a:4e:cc:5e:63:f3:43:e4:c4:d6:3a:
                    87:0d:bf:34:1c:e9:73:5f:f2:cd:47:db:a7:bf:c2:
                    78:09:fc:0b:b9:04:4a:81:3c:4e:53:66:aa:d7:cc:
                    15:29:11:44:3d:0a:a6:8b:ee:fa:1a:f3:d4:3e:91:
                    6d:a6:ee:21:74:0c:42:89:d2:ff:5c:4f:7e:2d:7a:
                    7f:2e:28:41:20:81:40:52:00:ac:b6:8f:1e:80:4b:
                    93:29:68:7d:59:51:6c:1a:31:94:e8:86:25:fc:7a:
                    90:7f
                Exponent: 65537 (0x10001)
        X509v3 extensions:
            X509v3 Subject Key Identifier: 
                C3:4F:39:30:C5:B5:71:A8:BB:0A:F1:C5:28:FF:BE:D9:15:08:F4:B5
    Signature Algorithm: sha256WithRSAEncryption
         12:51:aa:2d:1f:61:ec:c1:3f:25:77:0d:5b:38:d5:27:ff:ef:
         20:3c:fd:04:0c:64:0c:72:1b:9d:96:af:a6:52:cf:7e:2c:5a:
         ab:ec:bb:8e:c8:61:3f:3f:31:bb:ad:58:01:c7:5d:6e:46:52:
         44:ab:a7:7e:19:9f:17:2c:c9:ae:5b:fc:43:5b:f1:8b:a5:e8:
         d1:73:08:30:09:2a:9e:f1:45:b9:d8:53:c6:06:e9:79:bf:0a:
         5d:cb:57:34:78:b8:c5:2d:36:7b:c1:0b:8c:bc:bf:8c:55:45:
         ea:28:31:53:d9:12:5c:d9:d9:f0:e1:b9:89:90:ea:dd:e3:77:
         27:38:7f:e8:83:7f:d1:e5:71:0a:c8:db:ab:92:0b:e6:58:e8:
         87:f2:73:ca:02:f3:d8:0f:3b:84:08:99:0b:2e:72:fe:23:48:
         bc:e2:23:9d:39:9d:a4:19:57:c4:15:fa:df:37:0c:b5:c0:5f:
         d7:9e:f0:7e:dc:3d:e3:75:02:ae:2a:c1:a7:26:01:fe:f9:db:
         00:d4:dd:92:04:2d:26:52:57:89:50:3c:f3:cf:ca:6a:46:72:
         fe:57:64:1e:29:e8:ee:35:37:7a:a7:f4:e9:2b:d8:06:2a:16:
         d4:0e:79:39:ee:06:47:eb:b2:34:cb:7e:9e:3d:82:23:85:bc:
         ac:b2:fa:70
-----BEGIN CERTIFICATE-----
MIIDazCCAlOgAwIBAgIEfKuRrjANBgkqhkiG9w0BAQsFADBmMQswCQYDVQQGEwJ3
dzEOMAwGA1UECBMFd29ybGQxDjAMBgNVBAcTBU1pbGFuMQ8wDQYDVQQKEwZyZWRo
YXQxDjAMBgNVBAsTBUpCb3NzMRYwFAYDVQQDEw1WaXR0b3JpbyBSaWdhMB4XDTE4
MDEzMTA3MzkzMVoXDTI3MTIxMDA3MzkzMVowZjELMAkGA1UEBhMCd3cxDjAMBgNV
BAgTBXdvcmxkMQ4wDAYDVQQHEwVNaWxhbjEPMA0GA1UEChMGcmVkaGF0MQ4wDAYD
VQQLEwVKQm9zczEWMBQGA1UEAxMNVml0dG9yaW8gUmlnYTCCASIwDQYJKoZIhvcN
AQEBBQADggEPADCCAQoCggEBAJw/HCuq7crQHWs01Tk5m0tjGjuJW58y2wUOHu5E
xwCYFaB9/OsxBPMsBAw+luXuA+XZKBbjMEHrwPo23C1Vu0Jm9r2UE0CcglhL0v2d
r+SAgwyHOQxESZxe/R+uWGb5rGcrqhydwUyn9JNzrKxXS0KwVkWnWgyNNDnyJhWw
a5QrwcG14J5Cx0F05h64bx/gmw8Mdt4EJ4m7N0pOzF5j80PkxNY6hw2/NBzpc1/y
zUfbp7/CeAn8C7kESoE8TlNmqtfMFSkRRD0Kpovu+hrz1D6RbabuIXQMQonS/1xP
fi16fy4oQSCBQFIArLaPHoBLkylofVlRbBoxlOiGJfx6kH8CAwEAAaMhMB8wHQYD
VR0OBBYEFMNPOTDFtXGouwrxxSj/vtkVCPS1MA0GCSqGSIb3DQEBCwUAA4IBAQAS
UaotH2HswT8ldw1bONUn/+8gPP0EDGQMchudlq+mUs9+LFqr7LuOyGE/PzG7rVgB
x11uRlJEq6d+GZ8XLMmuW/xDW/GLpejRcwgwCSqe8UW52FPGBul5vwpdy1c0eLjF
LTZ7wQuMvL+MVUXqKDFT2RJc2dnw4bmJkOrd43cnOH/og3/R5XEKyNurkgvmWOiH
8nPKAvPYDzuECJkLLnL+I0i84iOdOZ2kGVfEFfrfNwy1wF/XnvB+3D3jdQKuKsGn
JgH++dsA1N2SBC0mUleJUDzzz8pqRnL+V2QeKejuNTd6p/TpK9gGKhbUDnk57gZH
67I0y36ePYIjhbyssvpw
-----END CERTIFICATE-----
